; Function Attrs: mustprogress uwtable
define internal fastcc void @"_ZSt9transformIN9__gnu_cxx17__normal_iteratorIPKNSt7__cxx1112basic_stringIcSt11char_traitsIcESaIcEEESt6vectorIS7_SaIS7_EEEENS1_IP18cmListFileArgumentSA_ISE_SaISE_EEEEZN20cmFindPackageCommand11InitialPassERKSC_E3$_0ET0_T_SO_SN_T1_"(ptr %0, ptr readnone %1, ptr %2) unnamed_addr #3 personality ptr @__gxx_personality_v0 {
  %4 = alloca %"class.std::__cxx11::basic_string", align 8
  %5 = alloca %struct.cmListFileArgument, align 8
  %.not6 = icmp eq ptr %0, %1
  br i1 %.not6, label %._crit_edge, label %.lr.ph

.lr.ph:                                           ; preds = %3
  %6 = getelementptr inbounds i8, ptr %5, i64 32
  %7 = getelementptr inbounds i8, ptr %5, i64 40
  br label %8

8:                                                ; preds = %.lr.ph, %8
  %.sroa.0.08 = phi ptr [ %2, %.lr.ph ], [ %12, %8 ]
  %.sroa.03.07 = phi ptr [ %0, %.lr.ph ], [ %11, %8 ]
  call void @llvm.experimental.noalias.scope.decl(metadata !220)
  call void @llvm.lifetime.start.p0(i64 32, ptr nonnull %4)
  call void @_ZNSt7__cxx1112basic_stringIcSt11char_traitsIcESaIcEEC1ERKS4_(ptr noundef nonnull align 8 dereferenceable(32) %4, ptr noundef nonnull align 8 dereferenceable(32) %.sroa.03.07), !noalias !220
  call void @_ZNSt7__cxx1112basic_stringIcSt11char_traitsIcESaIcEEC1EOS4_(ptr noundef nonnull align 8 dereferenceable(32) %5, ptr noundef nonnull align 8 dereferenceable(32) %4) #23
  store i32 2, ptr %6, align 8, !alias.scope !220
  store i64 0, ptr %7, align 8, !alias.scope !220
  call void @_ZNSt7__cxx1112basic_stringIcSt11char_traitsIcESaIcEED1Ev(ptr noundef nonnull align 8 dereferenceable(32) %4) #23
  call void @llvm.lifetime.end.p0(i64 32, ptr nonnull %4)
  %9 = call noundef nonnull align 8 dereferenceable(32) ptr @_ZNSt7__cxx1112basic_stringIcSt11char_traitsIcESaIcEEaSEOS4_(ptr noundef nonnull align 8 dereferenceable(32) %.sroa.0.08, ptr noundef nonnull align 8 dereferenceable(32) %5) #23
  %10 = getelementptr inbounds i8, ptr %.sroa.0.08, i64 32
  call void @llvm.memcpy.p0.p0.i64(ptr noundef nonnull align 8 dereferenceable(16) %10, ptr noundef nonnull align 8 dereferenceable(16) %6, i64 16, i1 false)
  call void @_ZNSt7__cxx1112basic_stringIcSt11char_traitsIcESaIcEED1Ev(ptr noundef nonnull align 8 dereferenceable(32) %5) #23
  %11 = getelementptr inbounds i8, ptr %.sroa.03.07, i64 32
  %12 = getelementptr inbounds i8, ptr %.sroa.0.08, i64 48
  %.not = icmp eq ptr %11, %1
  br i1 %.not, label %._crit_edge, label %8, !llvm.loop !223

._crit_edge:                                      ; preds = %8, %3
  ret void
}